target datalayout = "e-m:e-p270:32:32-p271:32:32-p272:64:64-i64:64-i128:128-f80:128-n8:16:32:64-S128"
target triple = "x86_64-pc-linux-gnu"

%struct.AVRational = type { i32, i32 }

; Function Attrs: nounwind willreturn memory(none) uwtable
define i64 @av_mul_q(i64 %0, i64 %1) #4 {
  %3 = alloca %struct.AVRational, align 4
  %4 = alloca %struct.AVRational, align 4
  %5 = alloca %struct.AVRational, align 4
  store i64 %0, ptr %4, align 4
  store i64 %1, ptr %5, align 4
  %6 = getelementptr inbounds nuw %struct.AVRational, ptr %4, i32 0, i32 0
  %7 = getelementptr inbounds nuw %struct.AVRational, ptr %4, i32 0, i32 1
  %8 = getelementptr inbounds nuw %struct.AVRational, ptr %4, i32 0, i32 0
  %9 = load i32, ptr %8, align 4, !tbaa !13
  %10 = sext i32 %9 to i64
  %11 = getelementptr inbounds nuw %struct.AVRational, ptr %5, i32 0, i32 0
  %12 = load i32, ptr %11, align 4, !tbaa !13
  %13 = sext i32 %12 to i64
  %14 = mul nsw i64 %10, %13
  %15 = getelementptr inbounds nuw %struct.AVRational, ptr %4, i32 0, i32 1
  %16 = load i32, ptr %15, align 4, !tbaa !15
  %17 = sext i32 %16 to i64
  %18 = getelementptr inbounds nuw %struct.AVRational, ptr %5, i32 0, i32 1
  %19 = load i32, ptr %18, align 4, !tbaa !15
  %20 = sext i32 %19 to i64
  %21 = mul nsw i64 %17, %20
  %22 = call i32 @av_reduce(ptr noundef %6, ptr noundef %7, i64 noundef %14, i64 noundef %21, i64 noundef 2147483647)
  call void @llvm.memcpy.p0.p0.i64(ptr align 4 %3, ptr align 4 %4, i64 8, i1 false), !tbaa.struct !16
  %23 = load i64, ptr %3, align 4
  ret i64 %23
}